target datalayout = "e-m:e-p270:32:32-p271:32:32-p272:64:64-i64:64-i128:128-f80:128-n8:16:32:64-S128"
target triple = "x86_64-pc-linux-gnu"

%struct.MLZ = type { i32, i32, i32, i32, i32, i32, ptr, ptr }

; Function Attrs: cold nounwind optsize uwtable
define i32 @ff_mlz_init_dict(ptr noundef %0, ptr noundef %1) #0 {
  %3 = alloca i32, align 4
  %4 = alloca ptr, align 8
  %5 = alloca ptr, align 8
  store ptr %0, ptr %4, align 8, !tbaa !4
  store ptr %1, ptr %5, align 8, !tbaa !8
  %6 = call noalias ptr @av_mallocz(i64 noundef 560368)
  %7 = load ptr, ptr %5, align 8, !tbaa !8
  %8 = getelementptr inbounds nuw %struct.MLZ, ptr %7, i32 0, i32 6
  store ptr %6, ptr %8, align 8, !tbaa !10
  %9 = load ptr, ptr %5, align 8, !tbaa !8
  %10 = getelementptr inbounds nuw %struct.MLZ, ptr %9, i32 0, i32 6
  %11 = load ptr, ptr %10, align 8, !tbaa !10
  %12 = icmp ne ptr %11, null
  br i1 %12, label %14, label %13

13:                                               ; preds = %2
  store i32 -12, ptr %3, align 4
  br label %30

14:                                               ; preds = %2
  %15 = load ptr, ptr %5, align 8, !tbaa !8
  %16 = getelementptr inbounds nuw %struct.MLZ, ptr %15, i32 0, i32 3
  store i32 256, ptr %16, align 4, !tbaa !14
  %17 = load ptr, ptr %5, align 8, !tbaa !8
  %18 = getelementptr inbounds nuw %struct.MLZ, ptr %17, i32 0, i32 1
  store i32 512, ptr %18, align 4, !tbaa !15
  %19 = load ptr, ptr %5, align 8, !tbaa !8
  %20 = getelementptr inbounds nuw %struct.MLZ, ptr %19, i32 0, i32 0
  store i32 9, ptr %20, align 8, !tbaa !16
  %21 = load ptr, ptr %5, align 8, !tbaa !8
  %22 = getelementptr inbounds nuw %struct.MLZ, ptr %21, i32 0, i32 2
  store i32 511, ptr %22, align 8, !tbaa !17
  %23 = load ptr, ptr %5, align 8, !tbaa !8
  %24 = getelementptr inbounds nuw %struct.MLZ, ptr %23, i32 0, i32 4
  store i32 258, ptr %24, align 8, !tbaa !18
  %25 = load ptr, ptr %5, align 8, !tbaa !8
  %26 = getelementptr inbounds nuw %struct.MLZ, ptr %25, i32 0, i32 5
  store i32 0, ptr %26, align 4, !tbaa !19
  %27 = load ptr, ptr %4, align 8, !tbaa !4
  %28 = load ptr, ptr %5, align 8, !tbaa !8
  %29 = getelementptr inbounds nuw %struct.MLZ, ptr %28, i32 0, i32 7
  store ptr %27, ptr %29, align 8, !tbaa !20
  store i32 0, ptr %3, align 4
  br label %30

30:                                               ; preds = %14, %13
  %31 = load i32, ptr %3, align 4
  ret i32 %31
}