; Function Attrs: cold nounwind optsize uwtable
define range(i32 -12, 1) i32 @ff_mlz_init_dict(ptr noundef %0, ptr noundef writeonly captures(none) initializes((24, 32)) %1) local_unnamed_addr #0 {
  %3 = tail call noalias ptr @av_mallocz(i64 noundef 560368) #5
  %4 = getelementptr inbounds nuw i8, ptr %1, i64 24
  store ptr %3, ptr %4, align 8, !tbaa !4
  %.not = icmp eq ptr %3, null
  br i1 %.not, label %12, label %5

5:                                                ; preds = %2
  %6 = getelementptr inbounds nuw i8, ptr %1, i64 12
  store i32 256, ptr %6, align 4, !tbaa !11
  %7 = getelementptr inbounds nuw i8, ptr %1, i64 4
  store i32 512, ptr %7, align 4, !tbaa !12
  store i32 9, ptr %1, align 8, !tbaa !13
  %8 = getelementptr inbounds nuw i8, ptr %1, i64 8
  store i32 511, ptr %8, align 8, !tbaa !14
  %9 = getelementptr inbounds nuw i8, ptr %1, i64 16
  store i32 258, ptr %9, align 8, !tbaa !15
  %10 = getelementptr inbounds nuw i8, ptr %1, i64 20
  store i32 0, ptr %10, align 4, !tbaa !16
  %11 = getelementptr inbounds nuw i8, ptr %1, i64 32
  store ptr %0, ptr %11, align 8, !tbaa !17
  br label %12

12:                                               ; preds = %2, %5
  %.0 = phi i32 [ 0, %5 ], [ -12, %2 ]
  ret i32 %.0
}